target datalayout = "e-m:e-p270:32:32-p271:32:32-p272:64:64-i64:64-i128:128-f80:128-n8:16:32:64-S128"
target triple = "x86_64-pc-linux-gnu"

%struct.FT_Driver_ClassRec_ = type { %struct.FT_Module_Class_, i64, i64, i64, ptr, ptr, ptr, ptr, ptr, ptr, ptr, ptr, ptr, ptr, ptr, ptr }
%struct.FT_Module_Class_ = type { i64, i64, ptr, i64, i64, ptr, ptr, ptr, ptr }
%struct.FT_ModuleRec_ = type { ptr, ptr, ptr }
%struct.T42_DriverRec_ = type { %struct.FT_DriverRec_, ptr }
%struct.FT_DriverRec_ = type { %struct.FT_ModuleRec_, ptr, %struct.FT_ListRec_, ptr }
%struct.FT_ListRec_ = type { ptr, ptr }
%struct.FT_CharMapRec_ = type { ptr, i32, i16, i16 }
%struct.T42_FaceRec_ = type { %struct.FT_FaceRec_, %struct.T1_FontRec_, ptr, ptr, ptr, i64, ptr, [2 x %struct.FT_CharMapRec_], [2 x ptr], %struct.PS_UnicodesRec_ }
%struct.FT_FaceRec_ = type { i64, i64, i64, i64, i64, ptr, ptr, i32, ptr, i32, ptr, %struct.FT_Generic_, %struct.FT_BBox_, i16, i16, i16, i16, i16, i16, i16, i16, ptr, ptr, ptr, ptr, ptr, ptr, %struct.FT_ListRec_, %struct.FT_Generic_, ptr, ptr }
%struct.FT_BBox_ = type { i64, i64, i64, i64 }
%struct.FT_Generic_ = type { ptr, ptr }
%struct.T1_FontRec_ = type { %struct.PS_FontInfoRec_, %struct.PS_FontExtraRec_, %struct.PS_PrivateRec_, ptr, i32, %struct.T1_EncodingRecRec_, ptr, ptr, ptr, i32, ptr, ptr, ptr, i32, ptr, ptr, ptr, i8, i8, %struct.FT_Matrix_, %struct.FT_Vector_, %struct.FT_BBox_, i64, i64 }
%struct.PS_FontInfoRec_ = type { ptr, ptr, ptr, ptr, ptr, i64, i8, i16, i16 }
%struct.PS_FontExtraRec_ = type { i16 }
%struct.PS_PrivateRec_ = type { i32, i32, i8, i8, i8, i8, [14 x i16], [10 x i16], [14 x i16], [10 x i16], i64, i32, i32, [1 x i16], [1 x i16], i8, i8, i8, i8, [13 x i16], [13 x i16], i64, i64, i64, [2 x i16] }
%struct.T1_EncodingRecRec_ = type { i32, i32, i32, ptr, ptr }
%struct.FT_Matrix_ = type { i64, i64, i64, i64 }
%struct.FT_Vector_ = type { i64, i64 }
%struct.PS_UnicodesRec_ = type { %struct.FT_CMapRec_, i32, ptr }
%struct.FT_CMapRec_ = type { %struct.FT_CharMapRec_, ptr }
%struct.FT_SizeRec_ = type { ptr, %struct.FT_Generic_, %struct.FT_Size_Metrics_, ptr }
%struct.FT_Size_Metrics_ = type { i16, i16, i64, i64, i64, i64, i64, i64 }
%struct.T42_SizeRec_ = type { %struct.FT_SizeRec_, ptr }
%struct.FT_GlyphSlotRec_ = type { ptr, ptr, ptr, i32, %struct.FT_Generic_, %struct.FT_Glyph_Metrics_, i64, i64, %struct.FT_Vector_, i32, %struct.FT_Bitmap_, i32, i32, %struct.FT_Outline_, i32, ptr, ptr, i64, i64, i64, ptr, ptr }
%struct.FT_Glyph_Metrics_ = type { i64, i64, i64, i64, i64, i64, i64, i64 }
%struct.FT_Bitmap_ = type { i32, i32, i32, ptr, i16, i8, i8, ptr }
%struct.FT_Outline_ = type { i16, i16, ptr, ptr, ptr, i32 }
%struct.T42_GlyphSlotRec_ = type { %struct.FT_GlyphSlotRec_, ptr }

; Function Attrs: nounwind uwtable
define internal void @t42_glyphslot_clear(ptr noundef %0) #0 {
  %2 = alloca ptr, align 8
  store ptr %0, ptr %2, align 8, !tbaa !166
  %3 = load ptr, ptr %2, align 8, !tbaa !166
  call void @ft_glyphslot_free_bitmap(ptr noundef %3)
  %4 = load ptr, ptr %2, align 8, !tbaa !166
  %5 = getelementptr inbounds nuw %struct.FT_GlyphSlotRec_, ptr %4, i32 0, i32 5
  call void @llvm.memset.p0.i64(ptr align 8 %5, i8 0, i64 64, i1 false)
  %6 = load ptr, ptr %2, align 8, !tbaa !166
  %7 = getelementptr inbounds nuw %struct.FT_GlyphSlotRec_, ptr %6, i32 0, i32 13
  call void @llvm.memset.p0.i64(ptr align 8 %7, i8 0, i64 40, i1 false)
  %8 = load ptr, ptr %2, align 8, !tbaa !166
  %9 = getelementptr inbounds nuw %struct.FT_GlyphSlotRec_, ptr %8, i32 0, i32 10
  call void @llvm.memset.p0.i64(ptr align 8 %9, i8 0, i64 40, i1 false)
  %10 = load ptr, ptr %2, align 8, !tbaa !166
  %11 = getelementptr inbounds nuw %struct.FT_GlyphSlotRec_, ptr %10, i32 0, i32 11
  store i32 0, ptr %11, align 8, !tbaa !198
  %12 = load ptr, ptr %2, align 8, !tbaa !166
  %13 = getelementptr inbounds nuw %struct.FT_GlyphSlotRec_, ptr %12, i32 0, i32 12
  store i32 0, ptr %13, align 4, !tbaa !199
  %14 = load ptr, ptr %2, align 8, !tbaa !166
  %15 = getelementptr inbounds nuw %struct.FT_GlyphSlotRec_, ptr %14, i32 0, i32 14
  store i32 0, ptr %15, align 8, !tbaa !200
  %16 = load ptr, ptr %2, align 8, !tbaa !166
  %17 = getelementptr inbounds nuw %struct.FT_GlyphSlotRec_, ptr %16, i32 0, i32 15
  store ptr null, ptr %17, align 8, !tbaa !201
  %18 = load ptr, ptr %2, align 8, !tbaa !166
  %19 = getelementptr inbounds nuw %struct.FT_GlyphSlotRec_, ptr %18, i32 0, i32 16
  store ptr null, ptr %19, align 8, !tbaa !202
  %20 = load ptr, ptr %2, align 8, !tbaa !166
  %21 = getelementptr inbounds nuw %struct.FT_GlyphSlotRec_, ptr %20, i32 0, i32 17
  store i64 0, ptr %21, align 8, !tbaa !203
  %22 = load ptr, ptr %2, align 8, !tbaa !166
  %23 = getelementptr inbounds nuw %struct.FT_GlyphSlotRec_, ptr %22, i32 0, i32 20
  store ptr null, ptr %23, align 8, !tbaa !317
  %24 = load ptr, ptr %2, align 8, !tbaa !166
  %25 = getelementptr inbounds nuw %struct.FT_GlyphSlotRec_, ptr %24, i32 0, i32 9
  store i32 0, ptr %25, align 8, !tbaa !192
  %26 = load ptr, ptr %2, align 8, !tbaa !166
  %27 = getelementptr inbounds nuw %struct.FT_GlyphSlotRec_, ptr %26, i32 0, i32 6
  store i64 0, ptr %27, align 8, !tbaa !190
  %28 = load ptr, ptr %2, align 8, !tbaa !166
  %29 = getelementptr inbounds nuw %struct.FT_GlyphSlotRec_, ptr %28, i32 0, i32 7
  store i64 0, ptr %29, align 8, !tbaa !191
  ret void
}

; Function Attrs: nounwind uwtable
define internal i32 @T42_GlyphSlot_Load(ptr noundef %0, ptr noundef %1, i32 noundef %2, i32 noundef %3) #0 {
  %5 = alloca ptr, align 8
  %6 = alloca ptr, align 8
  %7 = alloca i32, align 4
  %8 = alloca i32, align 4
  %9 = alloca i32, align 4
  %10 = alloca ptr, align 8
  %11 = alloca ptr, align 8
  %12 = alloca ptr, align 8
  %13 = alloca ptr, align 8
  store ptr %0, ptr %5, align 8, !tbaa !166
  store ptr %1, ptr %6, align 8, !tbaa !156
  store i32 %2, ptr %7, align 4, !tbaa !29
  store i32 %3, ptr %8, align 4, !tbaa !29
  call void @llvm.lifetime.start.p0(i64 4, ptr %9) #7
  call void @llvm.lifetime.start.p0(i64 8, ptr %10) #7
  %14 = load ptr, ptr %5, align 8, !tbaa !166
  store ptr %14, ptr %10, align 8, !tbaa !167
  call void @llvm.lifetime.start.p0(i64 8, ptr %11) #7
  %15 = load ptr, ptr %6, align 8, !tbaa !156
  store ptr %15, ptr %11, align 8, !tbaa !157
  call void @llvm.lifetime.start.p0(i64 8, ptr %12) #7
  %16 = load ptr, ptr %6, align 8, !tbaa !156
  %17 = getelementptr inbounds nuw %struct.FT_SizeRec_, ptr %16, i32 0, i32 0
  %18 = load ptr, ptr %17, align 8, !tbaa !159
  store ptr %18, ptr %12, align 8, !tbaa !33
  call void @llvm.lifetime.start.p0(i64 8, ptr %13) #7
  %19 = load ptr, ptr %5, align 8, !tbaa !166
  %20 = getelementptr inbounds nuw %struct.FT_GlyphSlotRec_, ptr %19, i32 0, i32 1
  %21 = load ptr, ptr %20, align 8, !tbaa !169
  %22 = getelementptr inbounds nuw %struct.FT_FaceRec_, ptr %21, i32 0, i32 24
  %23 = load ptr, ptr %22, align 8, !tbaa !70
  %24 = getelementptr inbounds nuw %struct.T42_DriverRec_, ptr %23, i32 0, i32 1
  %25 = load ptr, ptr %24, align 8, !tbaa !16
  store ptr %25, ptr %13, align 8, !tbaa !184
  br label %26

26:                                               ; preds = %4
  br label %27

27:                                               ; preds = %26
  br label %28

28:                                               ; preds = %27
  %29 = load ptr, ptr %12, align 8, !tbaa !33
  %30 = getelementptr inbounds nuw %struct.T42_FaceRec_, ptr %29, i32 0, i32 1
  %31 = getelementptr inbounds nuw %struct.T1_FontRec_, ptr %30, i32 0, i32 15
  %32 = load ptr, ptr %31, align 8, !tbaa !185
  %33 = load i32, ptr %7, align 4, !tbaa !29
  %34 = zext i32 %33 to i64
  %35 = getelementptr inbounds nuw ptr, ptr %32, i64 %34
  %36 = load ptr, ptr %35, align 8, !tbaa !23
  %37 = call i64 @strtol(ptr noundef %36, ptr noundef null, i32 noundef 10) #7
  %38 = trunc i64 %37 to i32
  store i32 %38, ptr %7, align 4, !tbaa !29
  %39 = load ptr, ptr %10, align 8, !tbaa !167
  %40 = getelementptr inbounds nuw %struct.T42_GlyphSlotRec_, ptr %39, i32 0, i32 1
  %41 = load ptr, ptr %40, align 8, !tbaa !179
  call void @t42_glyphslot_clear(ptr noundef %41)
  %42 = load ptr, ptr %13, align 8, !tbaa !184
  %43 = getelementptr inbounds nuw %struct.FT_Driver_ClassRec_, ptr %42, i32 0, i32 10
  %44 = load ptr, ptr %43, align 8, !tbaa !186
  %45 = load ptr, ptr %10, align 8, !tbaa !167
  %46 = getelementptr inbounds nuw %struct.T42_GlyphSlotRec_, ptr %45, i32 0, i32 1
  %47 = load ptr, ptr %46, align 8, !tbaa !179
  %48 = load ptr, ptr %11, align 8, !tbaa !157
  %49 = getelementptr inbounds nuw %struct.T42_SizeRec_, ptr %48, i32 0, i32 1
  %50 = load ptr, ptr %49, align 8, !tbaa !163
  %51 = load i32, ptr %7, align 4, !tbaa !29
  %52 = load i32, ptr %8, align 4, !tbaa !29
  %53 = sext i32 %52 to i64
  %54 = or i64 %53, 8
  %55 = trunc i64 %54 to i32
  %56 = call i32 %44(ptr noundef %47, ptr noundef %50, i32 noundef %51, i32 noundef %55)
  store i32 %56, ptr %9, align 4, !tbaa !29
  %57 = load i32, ptr %9, align 4, !tbaa !29
  %58 = icmp ne i32 %57, 0
  br i1 %58, label %141, label %59

59:                                               ; preds = %28
  %60 = load ptr, ptr %5, align 8, !tbaa !166
  %61 = getelementptr inbounds nuw %struct.FT_GlyphSlotRec_, ptr %60, i32 0, i32 5
  %62 = load ptr, ptr %10, align 8, !tbaa !167
  %63 = getelementptr inbounds nuw %struct.T42_GlyphSlotRec_, ptr %62, i32 0, i32 1
  %64 = load ptr, ptr %63, align 8, !tbaa !179
  %65 = getelementptr inbounds nuw %struct.FT_GlyphSlotRec_, ptr %64, i32 0, i32 5
  call void @llvm.memcpy.p0.p0.i64(ptr align 8 %61, ptr align 8 %65, i64 64, i1 false), !tbaa.struct !189
  %66 = load ptr, ptr %10, align 8, !tbaa !167
  %67 = getelementptr inbounds nuw %struct.T42_GlyphSlotRec_, ptr %66, i32 0, i32 1
  %68 = load ptr, ptr %67, align 8, !tbaa !179
  %69 = getelementptr inbounds nuw %struct.FT_GlyphSlotRec_, ptr %68, i32 0, i32 6
  %70 = load i64, ptr %69, align 8, !tbaa !190
  %71 = load ptr, ptr %5, align 8, !tbaa !166
  %72 = getelementptr inbounds nuw %struct.FT_GlyphSlotRec_, ptr %71, i32 0, i32 6
  store i64 %70, ptr %72, align 8, !tbaa !190
  %73 = load ptr, ptr %10, align 8, !tbaa !167
  %74 = getelementptr inbounds nuw %struct.T42_GlyphSlotRec_, ptr %73, i32 0, i32 1
  %75 = load ptr, ptr %74, align 8, !tbaa !179
  %76 = getelementptr inbounds nuw %struct.FT_GlyphSlotRec_, ptr %75, i32 0, i32 7
  %77 = load i64, ptr %76, align 8, !tbaa !191
  %78 = load ptr, ptr %5, align 8, !tbaa !166
  %79 = getelementptr inbounds nuw %struct.FT_GlyphSlotRec_, ptr %78, i32 0, i32 7
  store i64 %77, ptr %79, align 8, !tbaa !191
  %80 = load ptr, ptr %10, align 8, !tbaa !167
  %81 = getelementptr inbounds nuw %struct.T42_GlyphSlotRec_, ptr %80, i32 0, i32 1
  %82 = load ptr, ptr %81, align 8, !tbaa !179
  %83 = getelementptr inbounds nuw %struct.FT_GlyphSlotRec_, ptr %82, i32 0, i32 9
  %84 = load i32, ptr %83, align 8, !tbaa !192
  %85 = load ptr, ptr %5, align 8, !tbaa !166
  %86 = getelementptr inbounds nuw %struct.FT_GlyphSlotRec_, ptr %85, i32 0, i32 9
  store i32 %84, ptr %86, align 8, !tbaa !192
  %87 = load ptr, ptr %5, align 8, !tbaa !166
  %88 = getelementptr inbounds nuw %struct.FT_GlyphSlotRec_, ptr %87, i32 0, i32 13
  %89 = load ptr, ptr %10, align 8, !tbaa !167
  %90 = getelementptr inbounds nuw %struct.T42_GlyphSlotRec_, ptr %89, i32 0, i32 1
  %91 = load ptr, ptr %90, align 8, !tbaa !179
  %92 = getelementptr inbounds nuw %struct.FT_GlyphSlotRec_, ptr %91, i32 0, i32 13
  call void @llvm.memcpy.p0.p0.i64(ptr align 8 %88, ptr align 8 %92, i64 40, i1 false), !tbaa.struct !193
  %93 = load ptr, ptr %5, align 8, !tbaa !166
  %94 = getelementptr inbounds nuw %struct.FT_GlyphSlotRec_, ptr %93, i32 0, i32 10
  %95 = load ptr, ptr %10, align 8, !tbaa !167
  %96 = getelementptr inbounds nuw %struct.T42_GlyphSlotRec_, ptr %95, i32 0, i32 1
  %97 = load ptr, ptr %96, align 8, !tbaa !179
  %98 = getelementptr inbounds nuw %struct.FT_GlyphSlotRec_, ptr %97, i32 0, i32 10
  call void @llvm.memcpy.p0.p0.i64(ptr align 8 %94, ptr align 8 %98, i64 40, i1 false), !tbaa.struct !197
  %99 = load ptr, ptr %10, align 8, !tbaa !167
  %100 = getelementptr inbounds nuw %struct.T42_GlyphSlotRec_, ptr %99, i32 0, i32 1
  %101 = load ptr, ptr %100, align 8, !tbaa !179
  %102 = getelementptr inbounds nuw %struct.FT_GlyphSlotRec_, ptr %101, i32 0, i32 11
  %103 = load i32, ptr %102, align 8, !tbaa !198
  %104 = load ptr, ptr %5, align 8, !tbaa !166
  %105 = getelementptr inbounds nuw %struct.FT_GlyphSlotRec_, ptr %104, i32 0, i32 11
  store i32 %103, ptr %105, align 8, !tbaa !198
  %106 = load ptr, ptr %10, align 8, !tbaa !167
  %107 = getelementptr inbounds nuw %struct.T42_GlyphSlotRec_, ptr %106, i32 0, i32 1
  %108 = load ptr, ptr %107, align 8, !tbaa !179
  %109 = getelementptr inbounds nuw %struct.FT_GlyphSlotRec_, ptr %108, i32 0, i32 12
  %110 = load i32, ptr %109, align 4, !tbaa !199
  %111 = load ptr, ptr %5, align 8, !tbaa !166
  %112 = getelementptr inbounds nuw %struct.FT_GlyphSlotRec_, ptr %111, i32 0, i32 12
  store i32 %110, ptr %112, align 4, !tbaa !199
  %113 = load ptr, ptr %10, align 8, !tbaa !167
  %114 = getelementptr inbounds nuw %struct.T42_GlyphSlotRec_, ptr %113, i32 0, i32 1
  %115 = load ptr, ptr %114, align 8, !tbaa !179
  %116 = getelementptr inbounds nuw %struct.FT_GlyphSlotRec_, ptr %115, i32 0, i32 14
  %117 = load i32, ptr %116, align 8, !tbaa !200
  %118 = load ptr, ptr %5, align 8, !tbaa !166
  %119 = getelementptr inbounds nuw %struct.FT_GlyphSlotRec_, ptr %118, i32 0, i32 14
  store i32 %117, ptr %119, align 8, !tbaa !200
  %120 = load ptr, ptr %10, align 8, !tbaa !167
  %121 = getelementptr inbounds nuw %struct.T42_GlyphSlotRec_, ptr %120, i32 0, i32 1
  %122 = load ptr, ptr %121, align 8, !tbaa !179
  %123 = getelementptr inbounds nuw %struct.FT_GlyphSlotRec_, ptr %122, i32 0, i32 15
  %124 = load ptr, ptr %123, align 8, !tbaa !201
  %125 = load ptr, ptr %5, align 8, !tbaa !166
  %126 = getelementptr inbounds nuw %struct.FT_GlyphSlotRec_, ptr %125, i32 0, i32 15
  store ptr %124, ptr %126, align 8, !tbaa !201
  %127 = load ptr, ptr %10, align 8, !tbaa !167
  %128 = getelementptr inbounds nuw %struct.T42_GlyphSlotRec_, ptr %127, i32 0, i32 1
  %129 = load ptr, ptr %128, align 8, !tbaa !179
  %130 = getelementptr inbounds nuw %struct.FT_GlyphSlotRec_, ptr %129, i32 0, i32 16
  %131 = load ptr, ptr %130, align 8, !tbaa !202
  %132 = load ptr, ptr %5, align 8, !tbaa !166
  %133 = getelementptr inbounds nuw %struct.FT_GlyphSlotRec_, ptr %132, i32 0, i32 16
  store ptr %131, ptr %133, align 8, !tbaa !202
  %134 = load ptr, ptr %10, align 8, !tbaa !167
  %135 = getelementptr inbounds nuw %struct.T42_GlyphSlotRec_, ptr %134, i32 0, i32 1
  %136 = load ptr, ptr %135, align 8, !tbaa !179
  %137 = getelementptr inbounds nuw %struct.FT_GlyphSlotRec_, ptr %136, i32 0, i32 17
  %138 = load i64, ptr %137, align 8, !tbaa !203
  %139 = load ptr, ptr %5, align 8, !tbaa !166
  %140 = getelementptr inbounds nuw %struct.FT_GlyphSlotRec_, ptr %139, i32 0, i32 17
  store i64 %138, ptr %140, align 8, !tbaa !203
  br label %141

141:                                              ; preds = %59, %28
  %142 = load i32, ptr %9, align 4, !tbaa !29
  call void @llvm.lifetime.end.p0(i64 8, ptr %13) #7
  call void @llvm.lifetime.end.p0(i64 8, ptr %12) #7
  call void @llvm.lifetime.end.p0(i64 8, ptr %11) #7
  call void @llvm.lifetime.end.p0(i64 8, ptr %10) #7
  call void @llvm.lifetime.end.p0(i64 4, ptr %9) #7
  ret i32 %142
}