; Function Attrs: nounwind uwtable
define internal i32 @T42_GlyphSlot_Load(ptr noundef captures(none) %0, ptr noundef readonly captures(none) %1, i32 noundef %2, i32 noundef %3) #0 {
  %5 = load ptr, ptr %1, align 8, !tbaa !195
  %6 = getelementptr inbounds nuw i8, ptr %0, i64 8
  %7 = load ptr, ptr %6, align 8, !tbaa !202
  %8 = getelementptr inbounds nuw i8, ptr %7, i64 176
  %9 = load ptr, ptr %8, align 8, !tbaa !54
  %10 = getelementptr inbounds nuw i8, ptr %9, i64 56
  %11 = load ptr, ptr %10, align 8, !tbaa !12
  %12 = getelementptr inbounds nuw i8, ptr %5, i64 656
  %13 = load ptr, ptr %12, align 8, !tbaa !218
  %14 = zext i32 %2 to i64
  %15 = getelementptr inbounds nuw ptr, ptr %13, i64 %14
  %16 = load ptr, ptr %15, align 8, !tbaa !129
  %17 = tail call i64 @strtol(ptr noundef captures(none) %16, ptr noundef null, i32 noundef 10) #13
  %18 = trunc i64 %17 to i32
  %19 = getelementptr inbounds nuw i8, ptr %0, i64 304
  %20 = load ptr, ptr %19, align 8, !tbaa !212
  tail call void @ft_glyphslot_free_bitmap(ptr noundef %20) #13
  %21 = getelementptr inbounds nuw i8, ptr %20, i64 48
  %22 = getelementptr inbounds nuw i8, ptr %20, i64 152
  %23 = getelementptr inbounds nuw i8, ptr %20, i64 248
  %24 = getelementptr inbounds nuw i8, ptr %20, i64 288
  store ptr null, ptr %24, align 8, !tbaa !219
  %25 = getelementptr inbounds nuw i8, ptr %20, i64 144
  store i32 0, ptr %25, align 8, !tbaa !220
  tail call void @llvm.memset.p0.i64(ptr noundef nonnull align 8 dereferenceable(80) %21, i8 0, i64 80, i1 false)
  tail call void @llvm.memset.p0.i64(ptr noundef nonnull align 8 dereferenceable(92) %22, i8 0, i64 92, i1 false)
  tail call void @llvm.memset.p0.i64(ptr noundef nonnull align 8 dereferenceable(24) %23, i8 0, i64 24, i1 false)
  %26 = getelementptr inbounds nuw i8, ptr %11, i64 144
  %27 = load ptr, ptr %26, align 8, !tbaa !221
  %28 = load ptr, ptr %19, align 8, !tbaa !212
  %29 = getelementptr inbounds nuw i8, ptr %1, i64 88
  %30 = load ptr, ptr %29, align 8, !tbaa !200
  %31 = or i32 %3, 8
  %32 = tail call i32 %27(ptr noundef %28, ptr noundef %30, i32 noundef %18, i32 noundef %31) #13
  %.not = icmp eq i32 %32, 0
  br i1 %.not, label %33, label %68

33:                                               ; preds = %4
  %34 = getelementptr inbounds nuw i8, ptr %0, i64 48
  %35 = load ptr, ptr %19, align 8, !tbaa !212
  %36 = getelementptr inbounds nuw i8, ptr %35, i64 48
  tail call void @llvm.memcpy.p0.p0.i64(ptr noundef nonnull align 8 dereferenceable(64) %34, ptr noundef nonnull align 8 dereferenceable(64) %36, i64 64, i1 false), !tbaa.struct !224
  %37 = getelementptr inbounds nuw i8, ptr %35, i64 112
  %38 = load i64, ptr %37, align 8, !tbaa !225
  %39 = getelementptr inbounds nuw i8, ptr %0, i64 112
  store i64 %38, ptr %39, align 8, !tbaa !225
  %40 = getelementptr inbounds nuw i8, ptr %35, i64 120
  %41 = load i64, ptr %40, align 8, !tbaa !226
  %42 = getelementptr inbounds nuw i8, ptr %0, i64 120
  store i64 %41, ptr %42, align 8, !tbaa !226
  %43 = getelementptr inbounds nuw i8, ptr %35, i64 144
  %44 = load i32, ptr %43, align 8, !tbaa !220
  %45 = getelementptr inbounds nuw i8, ptr %0, i64 144
  store i32 %44, ptr %45, align 8, !tbaa !220
  %46 = getelementptr inbounds nuw i8, ptr %0, i64 200
  %47 = getelementptr inbounds nuw i8, ptr %35, i64 200
  tail call void @llvm.memcpy.p0.p0.i64(ptr noundef nonnull align 8 dereferenceable(40) %46, ptr noundef nonnull align 8 dereferenceable(40) %47, i64 40, i1 false), !tbaa.struct !227
  %48 = getelementptr inbounds nuw i8, ptr %0, i64 152
  %49 = getelementptr inbounds nuw i8, ptr %35, i64 152
  tail call void @llvm.memcpy.p0.p0.i64(ptr noundef nonnull align 8 dereferenceable(40) %48, ptr noundef nonnull align 8 dereferenceable(40) %49, i64 40, i1 false), !tbaa.struct !230
  %50 = getelementptr inbounds nuw i8, ptr %35, i64 192
  %51 = load i32, ptr %50, align 8, !tbaa !231
  %52 = getelementptr inbounds nuw i8, ptr %0, i64 192
  store i32 %51, ptr %52, align 8, !tbaa !231
  %53 = getelementptr inbounds nuw i8, ptr %35, i64 196
  %54 = load i32, ptr %53, align 4, !tbaa !232
  %55 = getelementptr inbounds nuw i8, ptr %0, i64 196
  store i32 %54, ptr %55, align 4, !tbaa !232
  %56 = getelementptr inbounds nuw i8, ptr %35, i64 240
  %57 = load i32, ptr %56, align 8, !tbaa !233
  %58 = getelementptr inbounds nuw i8, ptr %0, i64 240
  store i32 %57, ptr %58, align 8, !tbaa !233
  %59 = getelementptr inbounds nuw i8, ptr %35, i64 248
  %60 = load ptr, ptr %59, align 8, !tbaa !234
  %61 = getelementptr inbounds nuw i8, ptr %0, i64 248
  store ptr %60, ptr %61, align 8, !tbaa !234
  %62 = getelementptr inbounds nuw i8, ptr %35, i64 256
  %63 = load ptr, ptr %62, align 8, !tbaa !235
  %64 = getelementptr inbounds nuw i8, ptr %0, i64 256
  store ptr %63, ptr %64, align 8, !tbaa !235
  %65 = getelementptr inbounds nuw i8, ptr %35, i64 264
  %66 = load i64, ptr %65, align 8, !tbaa !236
  %67 = getelementptr inbounds nuw i8, ptr %0, i64 264
  store i64 %66, ptr %67, align 8, !tbaa !236
  br label %68

68:                                               ; preds = %33, %4
  ret i32 %32
}